target datalayout = "e-m:e-p270:32:32-p271:32:32-p272:64:64-i64:64-i128:128-f80:128-n8:16:32:64-S128"
target triple = "x86_64-pc-linux-gnu"

%class.hwf = type { double }

; Function Attrs: mustprogress nounwind uwtable
define hidden noundef i64 @_Z3RAWd(double noundef %0) #5 {
  %2 = alloca double, align 8
  %3 = alloca i64, align 8
  store double %0, ptr %2, align 8, !tbaa !12
  call void @llvm.lifetime.start.p0(i64 8, ptr %3) #3
  call void @llvm.memcpy.p0.p0.i64(ptr align 8 %3, ptr align 8 %2, i64 8, i1 false)
  %4 = load i64, ptr %3, align 8, !tbaa !14
  call void @llvm.lifetime.end.p0(i64 8, ptr %3) #3
  ret i64 %4
}

; Function Attrs: mustprogress nounwind uwtable
define hidden noundef zeroext i1 @_ZN11hwf_manager6is_nanERK3hwf(ptr noundef nonnull align 8 dereferenceable(736) %0, ptr noundef nonnull align 8 dereferenceable(8) %1) #5 align 2 {
  %3 = alloca ptr, align 8
  %4 = alloca ptr, align 8
  %5 = alloca i8, align 1
  store ptr %0, ptr %3, align 8, !tbaa !3
  store ptr %1, ptr %4, align 8, !tbaa !16
  call void @llvm.lifetime.start.p0(i64 1, ptr %5) #3
  %6 = load ptr, ptr %4, align 8, !tbaa !16
  %7 = getelementptr inbounds nuw %class.hwf, ptr %6, i32 0, i32 0
  %8 = load double, ptr %7, align 8, !tbaa !20
  %9 = call noundef i64 @_Z3RAWd(double noundef %8)
  %10 = and i64 %9, 9218868437227405312
  %11 = icmp eq i64 %10, 9218868437227405312
  br i1 %11, label %12, label %19

12:                                               ; preds = %2
  %13 = load ptr, ptr %4, align 8, !tbaa !16
  %14 = getelementptr inbounds nuw %class.hwf, ptr %13, i32 0, i32 0
  %15 = load double, ptr %14, align 8, !tbaa !20
  %16 = call noundef i64 @_Z3RAWd(double noundef %15)
  %17 = and i64 %16, 4503599627370495
  %18 = icmp ne i64 %17, 0
  br label %19

19:                                               ; preds = %12, %2
  %20 = phi i1 [ false, %2 ], [ %18, %12 ]
  %21 = zext i1 %20 to i8
  store i8 %21, ptr %5, align 1, !tbaa !52
  %22 = load i8, ptr %5, align 1, !tbaa !52, !range !54, !noundef !55
  %23 = trunc i8 %22 to i1
  call void @llvm.lifetime.end.p0(i64 1, ptr %5) #3
  ret i1 %23
}