; Function Attrs: mustprogress nofree norecurse nosync nounwind willreturn memory(argmem: read) uwtable
define hidden noundef zeroext i1 @_ZN11hwf_manager6is_nanERK3hwf(ptr noundef nonnull readnone align 8 captures(none) dereferenceable(736) %0, ptr noundef nonnull readonly align 8 captures(none) dereferenceable(8) %1) local_unnamed_addr #10 align 2 {
  %3 = load i64, ptr %1, align 8, !tbaa !13
  %4 = and i64 %3, 9218868437227405312
  %5 = icmp eq i64 %4, 9218868437227405312
  %6 = and i64 %3, 4503599627370495
  %7 = icmp ne i64 %6, 0
  %8 = and i1 %5, %7
  ret i1 %8
}